; Function Attrs: mustprogress uwtable
define noundef double @_ZNK8QuantLib31CappedFlooredYoYInflationCoupon14underlyingRateEv(ptr noundef nonnull align 8 dereferenceable(232) %this) local_unnamed_addr #8 align 2 {
entry:
  %underlying_ = getelementptr inbounds nuw i8, ptr %this, i64 192
  %0 = load ptr, ptr %underlying_, align 8, !tbaa !67
  %cmp.i.not = icmp eq ptr %0, null
  br i1 %cmp.i.not, label %cond.false, label %_ZNK5boost10shared_ptrIN8QuantLib18YoYInflationCouponEEptEv.exit

_ZNK5boost10shared_ptrIN8QuantLib18YoYInflationCouponEEptEv.exit: ; preds = %entry
  %vtable = load ptr, ptr %0, align 8, !tbaa !33
  %vfn = getelementptr inbounds i8, ptr %vtable, i64 72
  %1 = load ptr, ptr %vfn, align 8
  %call4 = tail call noundef double %1(ptr noundef nonnull align 8 dereferenceable(160) %0)
  br label %cond.end

cond.false:                                       ; preds = %entry
  %call5 = tail call noundef double @_ZNK8QuantLib15InflationCoupon4rateEv(ptr noundef nonnull align 8 dereferenceable(160) %this)
  br label %cond.end

cond.end:                                         ; preds = %cond.false, %_ZNK5boost10shared_ptrIN8QuantLib18YoYInflationCouponEEptEv.exit
  %cond = phi double [ %call4, %_ZNK5boost10shared_ptrIN8QuantLib18YoYInflationCouponEEptEv.exit ], [ %call5, %cond.false ]
  ret double %cond
}